; Function Attrs: mustprogress uwtable
define hidden noundef zeroext i1 @_ZNK15fpa_decl_plugin8is_valueEP3app(ptr nocapture noundef nonnull readonly align 8 dereferenceable(1008) %this, ptr nocapture noundef readonly %e) unnamed_addr #3 align 2 {
entry:
  %m_decl.i.i = getelementptr inbounds i8, ptr %e, i64 16
  %0 = load ptr, ptr %m_decl.i.i, align 8
  %m_info.i.i = getelementptr inbounds i8, ptr %0, i64 24
  %1 = load ptr, ptr %m_info.i.i, align 8
  %cmp.i.i = icmp eq ptr %1, null
  br i1 %cmp.i.i, label %_ZNK3app13get_family_idEv.exit, label %_ZNK3app13get_family_idEv.exit.thread

_ZNK3app13get_family_idEv.exit:                   ; preds = %entry
  %m_family_id = getelementptr inbounds i8, ptr %this, i64 16
  %2 = load i32, ptr %m_family_id, align 8
  %cmp.not = icmp eq i32 %2, -1
  br i1 %cmp.not, label %sw.default, label %return

_ZNK3app13get_family_idEv.exit.thread:            ; preds = %entry
  %3 = load i32, ptr %1, align 8
  %m_family_id14 = getelementptr inbounds i8, ptr %this, i64 16
  %4 = load i32, ptr %m_family_id14, align 8
  %cmp.not15 = icmp eq i32 %3, %4
  br i1 %cmp.not15, label %_ZNK3app13get_decl_kindEv.exit, label %return

_ZNK3app13get_decl_kindEv.exit:                   ; preds = %_ZNK3app13get_family_idEv.exit.thread
  %m_kind.i.i.i = getelementptr inbounds i8, ptr %1, i64 4
  %5 = load i32, ptr %m_kind.i.i.i, align 4
  switch i32 %5, label %sw.default [
    i32 0, label %return
    i32 1, label %return
    i32 2, label %return
    i32 3, label %return
    i32 4, label %return
    i32 5, label %return
    i32 6, label %return
    i32 7, label %return
    i32 9, label %return
    i32 10, label %return
    i32 8, label %return
    i32 37, label %sw.bb3
  ]

sw.bb3:                                           ; preds = %_ZNK3app13get_decl_kindEv.exit
  %m_manager = getelementptr inbounds i8, ptr %this, i64 8
  %6 = load ptr, ptr %m_manager, align 8
  %m_args.i = getelementptr inbounds i8, ptr %e, i64 32
  %7 = load ptr, ptr %m_args.i, align 8
  %call5 = tail call noundef zeroext i1 @_ZNK11ast_manager8is_valueEP4expr(ptr noundef nonnull align 8 dereferenceable(976) %6, ptr noundef %7)
  br i1 %call5, label %land.lhs.true, label %return

land.lhs.true:                                    ; preds = %sw.bb3
  %8 = load ptr, ptr %m_manager, align 8
  %arrayidx.i = getelementptr inbounds i8, ptr %e, i64 40
  %9 = load ptr, ptr %arrayidx.i, align 8
  %call8 = tail call noundef zeroext i1 @_ZNK11ast_manager8is_valueEP4expr(ptr noundef nonnull align 8 dereferenceable(976) %8, ptr noundef %9)
  br i1 %call8, label %land.rhs, label %return

land.rhs:                                         ; preds = %land.lhs.true
  %10 = load ptr, ptr %m_manager, align 8
  %arrayidx.i12 = getelementptr inbounds i8, ptr %e, i64 48
  %11 = load ptr, ptr %arrayidx.i12, align 8
  %call11 = tail call noundef zeroext i1 @_ZNK11ast_manager8is_valueEP4expr(ptr noundef nonnull align 8 dereferenceable(976) %10, ptr noundef %11)
  br label %return

sw.default:                                       ; preds = %_ZNK3app13get_family_idEv.exit, %_ZNK3app13get_decl_kindEv.exit
  br label %return

return:                                           ; preds = %_ZNK3app13get_family_idEv.exit.thread, %sw.bb3, %land.lhs.true, %land.rhs, %_ZNK3app13get_decl_kindEv.exit, %_ZNK3app13get_decl_kindEv.exit, %_ZNK3app13get_decl_kindEv.exit, %_ZNK3app13get_decl_kindEv.exit, %_ZNK3app13get_decl_kindEv.exit, %_ZNK3app13get_decl_kindEv.exit, %_ZNK3app13get_decl_kindEv.exit, %_ZNK3app13get_decl_kindEv.exit, %_ZNK3app13get_decl_kindEv.exit, %_ZNK3app13get_decl_kindEv.exit, %_ZNK3app13get_decl_kindEv.exit, %_ZNK3app13get_family_idEv.exit, %sw.default
  %retval.0 = phi i1 [ false, %sw.default ], [ false, %_ZNK3app13get_family_idEv.exit ], [ true, %_ZNK3app13get_decl_kindEv.exit ], [ true, %_ZNK3app13get_decl_kindEv.exit ], [ true, %_ZNK3app13get_decl_kindEv.exit ], [ true, %_ZNK3app13get_decl_kindEv.exit ], [ true, %_ZNK3app13get_decl_kindEv.exit ], [ true, %_ZNK3app13get_decl_kindEv.exit ], [ true, %_ZNK3app13get_decl_kindEv.exit ], [ true, %_ZNK3app13get_decl_kindEv.exit ], [ true, %_ZNK3app13get_decl_kindEv.exit ], [ true, %_ZNK3app13get_decl_kindEv.exit ], [ true, %_ZNK3app13get_decl_kindEv.exit ], [ false, %land.lhs.true ], [ false, %sw.bb3 ], [ %call11, %land.rhs ], [ false, %_ZNK3app13get_family_idEv.exit.thread ]
  ret i1 %retval.0
}